target datalayout = "e-m:e-p270:32:32-p271:32:32-p272:64:64-i64:64-i128:128-f80:128-n8:16:32:64-S128"
target triple = "x86_64-pc-linux-gnu"

@ff_log2_tab = external constant [256 x i8], align 16

; Function Attrs: alwaysinline nounwind willreturn memory(none) uwtable
define internal i32 @ff_log2_c(i32 noundef %0) #6 {
  %2 = alloca i32, align 4
  %3 = alloca i32, align 4
  store i32 %0, ptr %2, align 4, !tbaa !30
  call void @llvm.lifetime.start.p0(i64 4, ptr %3) #16
  store i32 0, ptr %3, align 4, !tbaa !30
  %4 = load i32, ptr %2, align 4, !tbaa !30
  %5 = and i32 %4, -65536
  %6 = icmp ne i32 %5, 0
  br i1 %6, label %7, label %12

7:                                                ; preds = %1
  %8 = load i32, ptr %2, align 4, !tbaa !30
  %9 = lshr i32 %8, 16
  store i32 %9, ptr %2, align 4, !tbaa !30
  %10 = load i32, ptr %3, align 4, !tbaa !30
  %11 = add nsw i32 %10, 16
  store i32 %11, ptr %3, align 4, !tbaa !30
  br label %12

12:                                               ; preds = %7, %1
  %13 = load i32, ptr %2, align 4, !tbaa !30
  %14 = and i32 %13, 65280
  %15 = icmp ne i32 %14, 0
  br i1 %15, label %16, label %21

16:                                               ; preds = %12
  %17 = load i32, ptr %2, align 4, !tbaa !30
  %18 = lshr i32 %17, 8
  store i32 %18, ptr %2, align 4, !tbaa !30
  %19 = load i32, ptr %3, align 4, !tbaa !30
  %20 = add nsw i32 %19, 8
  store i32 %20, ptr %3, align 4, !tbaa !30
  br label %21

21:                                               ; preds = %16, %12
  %22 = load i32, ptr %2, align 4, !tbaa !30
  %23 = zext i32 %22 to i64
  %24 = getelementptr inbounds nuw [256 x i8], ptr @ff_log2_tab, i64 0, i64 %23
  %25 = load i8, ptr %24, align 1, !tbaa !122
  %26 = zext i8 %25 to i32
  %27 = load i32, ptr %3, align 4, !tbaa !30
  %28 = add nsw i32 %27, %26
  store i32 %28, ptr %3, align 4, !tbaa !30
  %29 = load i32, ptr %3, align 4, !tbaa !30
  call void @llvm.lifetime.end.p0(i64 4, ptr %3) #16
  ret i32 %29
}

; Function Attrs: nounwind uwtable
define internal i32 @ebml_id_size(i32 noundef %0) #0 {
  %2 = alloca i32, align 4
  store i32 %0, ptr %2, align 4, !tbaa !30
  %3 = load i32, ptr %2, align 4, !tbaa !30
  %4 = call i32 @ff_log2_c(i32 noundef %3) #19
  %5 = add i32 %4, 7
  %6 = udiv i32 %5, 8
  ret i32 %6
}

; Function Attrs: nounwind uwtable
define internal i32 @ebml_num_size(i64 noundef %0) #0 {
  %2 = alloca i64, align 8
  %3 = alloca i32, align 4
  store i64 %0, ptr %2, align 8, !tbaa !79
  call void @llvm.lifetime.start.p0(i64 4, ptr %3) #16
  store i32 0, ptr %3, align 4, !tbaa !30
  br label %4

4:                                                ; preds = %7, %1
  %5 = load i32, ptr %3, align 4, !tbaa !30
  %6 = add nsw i32 %5, 1
  store i32 %6, ptr %3, align 4, !tbaa !30
  br label %7

7:                                                ; preds = %4
  %8 = load i64, ptr %2, align 8, !tbaa !79
  %9 = lshr i64 %8, 7
  store i64 %9, ptr %2, align 8, !tbaa !79
  %10 = icmp ne i64 %9, 0
  br i1 %10, label %4, label %11, !llvm.loop !202

11:                                               ; preds = %7
  %12 = load i32, ptr %3, align 4, !tbaa !30
  call void @llvm.lifetime.end.p0(i64 4, ptr %3) #16
  ret i32 %12
}

; Function Attrs: nounwind uwtable
define internal void @put_ebml_id(ptr noundef %0, i32 noundef %1) #0 {
  %3 = alloca ptr, align 8
  %4 = alloca i32, align 4
  %5 = alloca i32, align 4
  store ptr %0, ptr %3, align 8, !tbaa !29
  store i32 %1, ptr %4, align 4, !tbaa !30
  call void @llvm.lifetime.start.p0(i64 4, ptr %5) #16
  %6 = load i32, ptr %4, align 4, !tbaa !30
  %7 = call i32 @ebml_id_size(i32 noundef %6)
  store i32 %7, ptr %5, align 4, !tbaa !30
  br label %8

8:                                                ; preds = %12, %2
  %9 = load i32, ptr %5, align 4, !tbaa !30
  %10 = add nsw i32 %9, -1
  store i32 %10, ptr %5, align 4, !tbaa !30
  %11 = icmp ne i32 %9, 0
  br i1 %11, label %12, label %20

12:                                               ; preds = %8
  %13 = load ptr, ptr %3, align 8, !tbaa !29
  %14 = load i32, ptr %4, align 4, !tbaa !30
  %15 = load i32, ptr %5, align 4, !tbaa !30
  %16 = mul nsw i32 %15, 8
  %17 = lshr i32 %14, %16
  %18 = trunc i32 %17 to i8
  %19 = zext i8 %18 to i32
  call void @avio_w8(ptr noundef %13, i32 noundef %19)
  br label %8, !llvm.loop !140

20:                                               ; preds = %8
  call void @llvm.lifetime.end.p0(i64 4, ptr %5) #16
  ret void
}

; Function Attrs: nounwind uwtable
define internal i32 @ebml_length_size(i64 noundef %0) #0 {
  %2 = alloca i64, align 8
  store i64 %0, ptr %2, align 8, !tbaa !79
  %3 = load i64, ptr %2, align 8, !tbaa !79
  %4 = add i64 %3, 1
  %5 = call i32 @ebml_num_size(i64 noundef %4)
  ret i32 %5
}

; Function Attrs: nounwind uwtable
define internal void @mkv_put_codecprivate(ptr noundef %0, i32 noundef %1, ptr noundef %2, i32 noundef %3) #0 {
  %5 = alloca ptr, align 8
  %6 = alloca i32, align 4
  %7 = alloca ptr, align 8
  %8 = alloca i32, align 4
  %9 = alloca i32, align 4
  %10 = alloca i32, align 4
  %11 = alloca i32, align 4
  %12 = alloca i32, align 4
  store ptr %0, ptr %5, align 8, !tbaa !29
  store i32 %1, ptr %6, align 4, !tbaa !30
  store ptr %2, ptr %7, align 8, !tbaa !134
  store i32 %3, ptr %8, align 4, !tbaa !30
  call void @llvm.lifetime.start.p0(i64 4, ptr %9) #16
  store i32 0, ptr %9, align 4, !tbaa !30
  call void @llvm.lifetime.start.p0(i64 4, ptr %10) #16
  %13 = load i32, ptr %6, align 4, !tbaa !30
  %14 = icmp ne i32 %13, 0
  br i1 %14, label %16, label %15

15:                                               ; preds = %4
  store i32 1, ptr %11, align 4
  br label %61

16:                                               ; preds = %4
  %17 = load i32, ptr %6, align 4, !tbaa !30
  %18 = zext i32 %17 to i64
  %19 = call i32 @ebml_length_size(i64 noundef %18)
  %20 = add nsw i32 2, %19
  %21 = load i32, ptr %6, align 4, !tbaa !30
  %22 = add i32 %20, %21
  store i32 %22, ptr %10, align 4, !tbaa !30
  %23 = load i32, ptr %8, align 4, !tbaa !30
  %24 = icmp ne i32 %23, 0
  br i1 %24, label %25, label %51

25:                                               ; preds = %16
  call void @llvm.lifetime.start.p0(i64 4, ptr %12) #16
  %26 = load i32, ptr %8, align 4, !tbaa !30
  %27 = zext i32 %26 to i64
  %28 = call i32 @ebml_length_size(i64 noundef %27)
  store i32 %28, ptr %12, align 4, !tbaa !30
  %29 = load i32, ptr %12, align 4, !tbaa !30
  %30 = add i32 2, %29
  %31 = load i32, ptr %8, align 4, !tbaa !30
  %32 = add i32 %30, %31
  store i32 %32, ptr %9, align 4, !tbaa !30
  %33 = load i32, ptr %9, align 4, !tbaa !30
  %34 = add i32 %33, 1
  %35 = load i32, ptr %10, align 4, !tbaa !30
  %36 = icmp eq i32 %34, %35
  br i1 %36, label %37, label %42

37:                                               ; preds = %25
  %38 = load i32, ptr %12, align 4, !tbaa !30
  %39 = add i32 %38, 1
  store i32 %39, ptr %12, align 4, !tbaa !30
  %40 = load i32, ptr %9, align 4, !tbaa !30
  %41 = add i32 %40, 1
  store i32 %41, ptr %9, align 4, !tbaa !30
  br label %42

42:                                               ; preds = %37, %25
  %43 = load ptr, ptr %5, align 8, !tbaa !29
  call void @put_ebml_id(ptr noundef %43, i32 noundef 25506)
  %44 = load ptr, ptr %5, align 8, !tbaa !29
  %45 = load i32, ptr %8, align 4, !tbaa !30
  %46 = zext i32 %45 to i64
  %47 = load i32, ptr %12, align 4, !tbaa !30
  call void @put_ebml_length(ptr noundef %44, i64 noundef %46, i32 noundef %47)
  %48 = load ptr, ptr %5, align 8, !tbaa !29
  %49 = load ptr, ptr %7, align 8, !tbaa !134
  %50 = load i32, ptr %8, align 4, !tbaa !30
  call void @avio_write(ptr noundef %48, ptr noundef %49, i32 noundef %50)
  call void @llvm.lifetime.end.p0(i64 4, ptr %12) #16
  br label %51

51:                                               ; preds = %42, %16
  %52 = load i32, ptr %9, align 4, !tbaa !30
  %53 = load i32, ptr %10, align 4, !tbaa !30
  %54 = icmp ult i32 %52, %53
  br i1 %54, label %55, label %60

55:                                               ; preds = %51
  %56 = load ptr, ptr %5, align 8, !tbaa !29
  %57 = load i32, ptr %10, align 4, !tbaa !30
  %58 = load i32, ptr %9, align 4, !tbaa !30
  %59 = sub i32 %57, %58
  call void @put_ebml_void(ptr noundef %56, i32 noundef %59)
  br label %60

60:                                               ; preds = %55, %51
  store i32 0, ptr %11, align 4
  br label %61

61:                                               ; preds = %60, %15
  call void @llvm.lifetime.end.p0(i64 4, ptr %10) #16
  call void @llvm.lifetime.end.p0(i64 4, ptr %9) #16
  %62 = load i32, ptr %11, align 4
  switch i32 %62, label %64 [
    i32 0, label %63
    i32 1, label %63
  ]

63:                                               ; preds = %61, %61
  ret void

64:                                               ; preds = %61
  unreachable
}