; Function Attrs: nounwind uwtable
define internal fastcc void @mkv_put_codecprivate(ptr noundef %0, i32 noundef %1, ptr noundef %2, i32 noundef %3) unnamed_addr #0 {
  %.not = icmp eq i32 %1, 0
  br i1 %.not, label %36, label %5

5:                                                ; preds = %4
  %6 = zext i32 %1 to i64
  %7 = add nuw nsw i64 %6, 1
  br label %8

8:                                                ; preds = %8, %5
  %.03.i.i = phi i64 [ %7, %5 ], [ %10, %8 ]
  %.0.i.i = phi i32 [ 0, %5 ], [ %9, %8 ]
  %9 = add nuw nsw i32 %.0.i.i, 1
  %10 = lshr i64 %.03.i.i, 7
  %.not.i.i = icmp samesign ult i64 %.03.i.i, 128
  br i1 %.not.i.i, label %ebml_length_size.exit, label %8, !llvm.loop !220

ebml_length_size.exit:                            ; preds = %8
  %11 = add i32 %1, 3
  %12 = add i32 %11, %.0.i.i
  %.not27 = icmp eq i32 %3, 0
  br i1 %.not27, label %32, label %13

13:                                               ; preds = %ebml_length_size.exit
  %14 = zext i32 %3 to i64
  %15 = add nuw nsw i64 %14, 1
  br label %16

16:                                               ; preds = %16, %13
  %.03.i.i29 = phi i64 [ %15, %13 ], [ %18, %16 ]
  %.0.i.i30 = phi i32 [ 0, %13 ], [ %17, %16 ]
  %17 = add nuw nsw i32 %.0.i.i30, 1
  %18 = lshr i64 %.03.i.i29, 7
  %.not.i.i31 = icmp samesign ult i64 %.03.i.i29, 128
  br i1 %.not.i.i31, label %ebml_length_size.exit32, label %16, !llvm.loop !220

ebml_length_size.exit32:                          ; preds = %16
  %19 = load i8, ptr getelementptr inbounds nuw (i8, ptr @ff_log2_tab, i64 99), align 1, !tbaa !50
  %20 = zext i8 %19 to i32
  %21 = add nuw nsw i32 %20, 15
  %22 = lshr i32 %21, 3
  br label %.lr.ph.i

.lr.ph.i:                                         ; preds = %.lr.ph.i, %ebml_length_size.exit32
  %.05.i = phi i32 [ %23, %.lr.ph.i ], [ %22, %ebml_length_size.exit32 ]
  %23 = add nsw i32 %.05.i, -1
  %24 = shl nsw i32 %23, 3
  %25 = lshr i32 25506, %24
  %26 = and i32 %25, 227
  tail call void @avio_w8(ptr noundef %0, i32 noundef %26) #14
  %.not.i = icmp eq i32 %23, 0
  br i1 %.not.i, label %put_ebml_id.exit, label %.lr.ph.i, !llvm.loop !51

put_ebml_id.exit:                                 ; preds = %.lr.ph.i
  %27 = add i32 %3, 3
  %28 = add i32 %27, %.0.i.i30
  %29 = add i32 %28, 1
  %30 = icmp eq i32 %29, %12
  %31 = add nuw i32 %.0.i.i30, 2
  %spec.select = select i1 %30, i32 %29, i32 %28
  %spec.select28 = select i1 %30, i32 %31, i32 %17
  tail call fastcc void @put_ebml_length(ptr noundef %0, i64 noundef %14, i32 noundef %spec.select28)
  tail call void @avio_write(ptr noundef %0, ptr noundef %2, i32 noundef %3) #14
  br label %32

32:                                               ; preds = %put_ebml_id.exit, %ebml_length_size.exit
  %.022 = phi i32 [ %spec.select, %put_ebml_id.exit ], [ 0, %ebml_length_size.exit ]
  %33 = icmp ult i32 %.022, %12
  br i1 %33, label %34, label %36

34:                                               ; preds = %32
  %35 = sub nuw i32 %12, %.022
  tail call fastcc void @put_ebml_void(ptr noundef %0, i32 noundef %35)
  br label %36

36:                                               ; preds = %32, %34, %4
  ret void
}